target datalayout = "e-m:e-p270:32:32-p271:32:32-p272:64:64-i64:64-i128:128-f80:128-n8:16:32:64-S128"
target triple = "x86_64-pc-linux-gnu"

%struct.GCRef = type { i64 }
%struct.jit_State = type { %struct.GCtrace, ptr, ptr, ptr, ptr, ptr, ptr, i32, i32, i32, i8, i8, %struct.IRType1, i8, %struct.FoldState, ptr, i32, i32, i32, i32, i32, i32, i32, [1 x i32], [5 x %union.TValue], [3 x %union.TValue], ptr, i32, i32, i32, i32, ptr, ptr, i32, i32, i8, ptr, i32, i32, i16, [101 x i16], [258 x i32], [15 x i32], [16 x ptr], [64 x %struct.HotPenalty], i32, [16 x %struct.BPropEntry], i32, %struct.ScEvEntry, ptr, i32, i32, i32, ptr, i32, i32, ptr, ptr, ptr, i64, i64, %union.TValue, ptr, i32, i32 }
%struct.GCtrace = type { %struct.GCRef, i8, i8, i16, i32, i32, %struct.GCRef, ptr, i32, i32, ptr, ptr, %struct.GCRef, %struct.MRef, i32, i32, ptr, i32, i16, i16, i16, i16, i16, i16, i16, i8, i8, i8, i8 }
%struct.MRef = type { i64 }
%struct.IRType1 = type { i8 }
%struct.FoldState = type { %union.IRIns, [2 x %union.IRIns], [2 x %union.IRIns] }
%union.IRIns = type { %struct.GCRef }
%struct.HotPenalty = type { %struct.MRef, i16, i16 }
%struct.BPropEntry = type { i16, i16, i32 }
%struct.ScEvEntry = type { %struct.MRef, i16, i16, i16, i16, %struct.IRType1, i8 }
%union.TValue = type { i64 }
%struct.anon.2 = type { i16, i16, i16, i16 }

; Function Attrs: alwaysinline nounwind uwtable
define internal void @lj_ir_set_(ptr noundef %0, i16 noundef zeroext %1, i16 noundef zeroext %2, i16 noundef zeroext %3) #1 {
  %5 = alloca ptr, align 8
  %6 = alloca i16, align 2
  %7 = alloca i16, align 2
  %8 = alloca i16, align 2
  store ptr %0, ptr %5, align 8, !tbaa !4
  store i16 %1, ptr %6, align 2, !tbaa !14
  store i16 %2, ptr %7, align 2, !tbaa !14
  store i16 %3, ptr %8, align 2, !tbaa !14
  %9 = load i16, ptr %6, align 2, !tbaa !14
  %10 = load ptr, ptr %5, align 8, !tbaa !4
  %11 = getelementptr inbounds nuw %struct.jit_State, ptr %10, i32 0, i32 14
  %12 = getelementptr inbounds nuw %struct.FoldState, ptr %11, i32 0, i32 0
  %13 = getelementptr inbounds nuw %struct.anon.2, ptr %12, i32 0, i32 2
  store i16 %9, ptr %13, align 4, !tbaa !13
  %14 = load i16, ptr %7, align 2, !tbaa !14
  %15 = load ptr, ptr %5, align 8, !tbaa !4
  %16 = getelementptr inbounds nuw %struct.jit_State, ptr %15, i32 0, i32 14
  %17 = getelementptr inbounds nuw %struct.FoldState, ptr %16, i32 0, i32 0
  %18 = getelementptr inbounds nuw %struct.anon.2, ptr %17, i32 0, i32 0
  store i16 %14, ptr %18, align 8, !tbaa !13
  %19 = load i16, ptr %8, align 2, !tbaa !14
  %20 = load ptr, ptr %5, align 8, !tbaa !4
  %21 = getelementptr inbounds nuw %struct.jit_State, ptr %20, i32 0, i32 14
  %22 = getelementptr inbounds nuw %struct.FoldState, ptr %21, i32 0, i32 0
  %23 = getelementptr inbounds nuw %struct.anon.2, ptr %22, i32 0, i32 1
  store i16 %19, ptr %23, align 2, !tbaa !13
  ret void
}

; Function Attrs: nounwind uwtable
define internal i32 @recff_io_fp(ptr noundef %0, ptr noundef %1, i32 noundef %2) #0 {
  %4 = alloca ptr, align 8
  %5 = alloca ptr, align 8
  %6 = alloca i32, align 4
  %7 = alloca i32, align 4
  %8 = alloca i32, align 4
  %9 = alloca i32, align 4
  store ptr %0, ptr %4, align 8, !tbaa !4
  store ptr %1, ptr %5, align 8, !tbaa !88
  store i32 %2, ptr %6, align 4, !tbaa !9
  call void @llvm.lifetime.start.p0(i64 4, ptr %7) #9
  call void @llvm.lifetime.start.p0(i64 4, ptr %8) #9
  call void @llvm.lifetime.start.p0(i64 4, ptr %9) #9
  %10 = load i32, ptr %6, align 4, !tbaa !9
  %11 = icmp ne i32 %10, 0
  br i1 %11, label %12, label %21

12:                                               ; preds = %3
  %13 = load ptr, ptr %4, align 8, !tbaa !4
  %14 = load i32, ptr %6, align 4, !tbaa !9
  %15 = sext i32 %14 to i64
  %16 = mul i64 %15, 8
  %17 = add i64 520, %16
  %18 = trunc i64 %17 to i32
  %19 = sext i32 %18 to i64
  %20 = call i32 @lj_ir_ggfload(ptr noundef %13, i32 noundef 12, i64 noundef %19)
  store i32 %20, ptr %8, align 4, !tbaa !9
  br label %46

21:                                               ; preds = %3
  %22 = load ptr, ptr %4, align 8, !tbaa !4
  %23 = getelementptr inbounds nuw %struct.jit_State, ptr %22, i32 0, i32 6
  %24 = load ptr, ptr %23, align 8, !tbaa !41
  %25 = getelementptr inbounds i32, ptr %24, i64 0
  %26 = load i32, ptr %25, align 4, !tbaa !9
  store i32 %26, ptr %8, align 4, !tbaa !9
  %27 = load i32, ptr %8, align 4, !tbaa !9
  %28 = and i32 %27, 520093696
  %29 = icmp eq i32 %28, 201326592
  br i1 %29, label %32, label %30

30:                                               ; preds = %21
  %31 = load ptr, ptr %4, align 8, !tbaa !4
  call void @lj_trace_err(ptr noundef %31, i32 noundef 11) #10
  unreachable

32:                                               ; preds = %21
  %33 = load ptr, ptr %4, align 8, !tbaa !4
  %34 = load i32, ptr %8, align 4, !tbaa !9
  %35 = trunc i32 %34 to i16
  call void @lj_ir_set_(ptr noundef %33, i16 noundef zeroext 17680, i16 noundef zeroext %35, i16 noundef zeroext 12)
  %36 = load ptr, ptr %4, align 8, !tbaa !4
  %37 = call i32 @lj_opt_fold(ptr noundef %36)
  store i32 %37, ptr %7, align 4, !tbaa !9
  %38 = load ptr, ptr %4, align 8, !tbaa !4
  %39 = load i32, ptr %7, align 4, !tbaa !9
  %40 = trunc i32 %39 to i16
  %41 = load ptr, ptr %4, align 8, !tbaa !4
  %42 = call i32 @lj_ir_kint(ptr noundef %41, i32 noundef 1)
  %43 = trunc i32 %42 to i16
  call void @lj_ir_set_(ptr noundef %38, i16 noundef zeroext 2195, i16 noundef zeroext %40, i16 noundef zeroext %43)
  %44 = load ptr, ptr %4, align 8, !tbaa !4
  %45 = call i32 @lj_opt_fold(ptr noundef %44)
  br label %46

46:                                               ; preds = %32, %12
  %47 = load i32, ptr %8, align 4, !tbaa !9
  %48 = load ptr, ptr %5, align 8, !tbaa !88
  store i32 %47, ptr %48, align 4, !tbaa !9
  %49 = load ptr, ptr %4, align 8, !tbaa !4
  %50 = load i32, ptr %8, align 4, !tbaa !9
  %51 = trunc i32 %50 to i16
  call void @lj_ir_set_(ptr noundef %49, i16 noundef zeroext 17673, i16 noundef zeroext %51, i16 noundef zeroext 13)
  %52 = load ptr, ptr %4, align 8, !tbaa !4
  %53 = call i32 @lj_opt_fold(ptr noundef %52)
  store i32 %53, ptr %9, align 4, !tbaa !9
  %54 = load ptr, ptr %4, align 8, !tbaa !4
  %55 = load i32, ptr %9, align 4, !tbaa !9
  %56 = trunc i32 %55 to i16
  %57 = load ptr, ptr %4, align 8, !tbaa !4
  %58 = call i32 @lj_ir_knull(ptr noundef %57, i32 noundef 9)
  %59 = trunc i32 %58 to i16
  call void @lj_ir_set_(ptr noundef %54, i16 noundef zeroext 2441, i16 noundef zeroext %56, i16 noundef zeroext %59)
  %60 = load ptr, ptr %4, align 8, !tbaa !4
  %61 = call i32 @lj_opt_fold(ptr noundef %60)
  %62 = load i32, ptr %9, align 4, !tbaa !9
  call void @llvm.lifetime.end.p0(i64 4, ptr %9) #9
  call void @llvm.lifetime.end.p0(i64 4, ptr %8) #9
  call void @llvm.lifetime.end.p0(i64 4, ptr %7) #9
  ret i32 %62
}