; Function Attrs: nounwind uwtable
define internal fastcc i32 @recff_io_fp(ptr noundef %0, ptr noundef nonnull writeonly captures(none) %1, i32 noundef %2) unnamed_addr #0 {
  %.not = icmp eq i32 %2, 0
  br i1 %.not, label %9, label %4

4:                                                ; preds = %3
  %5 = shl i32 %2, 3
  %6 = add i32 %5, 520
  %7 = sext i32 %6 to i64
  %8 = tail call i32 @lj_ir_ggfload(ptr noundef %0, i32 noundef 12, i64 noundef %7) #9
  %.pre = trunc i32 %8 to i16
  br label %26

9:                                                ; preds = %3
  %10 = getelementptr inbounds nuw i8, ptr %0, i64 160
  %11 = load ptr, ptr %10, align 8, !tbaa !37
  %12 = load i32, ptr %11, align 4, !tbaa !39
  %13 = and i32 %12, 520093696
  %14 = icmp eq i32 %13, 201326592
  br i1 %14, label %16, label %15

15:                                               ; preds = %9
  tail call void @lj_trace_err(ptr noundef nonnull %0, i32 noundef 11) #10
  unreachable

16:                                               ; preds = %9
  %17 = trunc i32 %12 to i16
  %18 = getelementptr inbounds nuw i8, ptr %0, i64 184
  %19 = getelementptr inbounds nuw i8, ptr %0, i64 188
  store i16 17680, ptr %19, align 4, !tbaa !4
  store i16 %17, ptr %18, align 8, !tbaa !4
  %20 = getelementptr inbounds nuw i8, ptr %0, i64 186
  store i16 12, ptr %20, align 2, !tbaa !4
  %21 = tail call i32 @lj_opt_fold(ptr noundef nonnull %0) #9
  %22 = trunc i32 %21 to i16
  %23 = tail call i32 @lj_ir_kint(ptr noundef nonnull %0, i32 noundef 1) #9
  %24 = trunc i32 %23 to i16
  store i16 2195, ptr %19, align 4, !tbaa !4
  store i16 %22, ptr %18, align 8, !tbaa !4
  store i16 %24, ptr %20, align 2, !tbaa !4
  %25 = tail call i32 @lj_opt_fold(ptr noundef nonnull %0) #9
  br label %26

26:                                               ; preds = %16, %4
  %.pre-phi = phi i16 [ %17, %16 ], [ %.pre, %4 ]
  %.0 = phi i32 [ %12, %16 ], [ %8, %4 ]
  store i32 %.0, ptr %1, align 4, !tbaa !39
  %27 = getelementptr inbounds nuw i8, ptr %0, i64 184
  %28 = getelementptr inbounds nuw i8, ptr %0, i64 188
  store i16 17673, ptr %28, align 4, !tbaa !4
  store i16 %.pre-phi, ptr %27, align 8, !tbaa !4
  %29 = getelementptr inbounds nuw i8, ptr %0, i64 186
  store i16 13, ptr %29, align 2, !tbaa !4
  %30 = tail call i32 @lj_opt_fold(ptr noundef %0) #9
  %31 = trunc i32 %30 to i16
  %32 = tail call i32 @lj_ir_knull(ptr noundef %0, i32 noundef 9) #9
  %33 = trunc i32 %32 to i16
  store i16 2441, ptr %28, align 4, !tbaa !4
  store i16 %31, ptr %27, align 8, !tbaa !4
  store i16 %33, ptr %29, align 2, !tbaa !4
  %34 = tail call i32 @lj_opt_fold(ptr noundef %0) #9
  ret i32 %30
}